; Function Attrs: mustprogress uwtable
define void @_ZN6icu_776number4impl6DecNum6_setToEPKciR10UErrorCode(ptr noundef nonnull align 8 dereferenceable(92) initializes((64, 68)) %0, ptr noundef %1, i32 noundef %2, ptr noundef nonnull writeonly align 4 captures(none) dereferenceable(4) %3) local_unnamed_addr #1 align 2 {
  %5 = icmp sgt i32 %2, 34
  br i1 %5, label %6, label %_ZN6icu_7724MaybeStackHeaderAndArrayI9decNumbercLi34EE6resizeEii.exit

6:                                                ; preds = %4
  %narrow.i = add nuw i32 %2, 12
  %7 = zext i32 %narrow.i to i64
  %8 = tail call noalias ptr @uprv_malloc_77(i64 noundef %7) #15
  %.not.i = icmp eq ptr %8, null
  br i1 %.not.i, label %_ZN6icu_7724MaybeStackHeaderAndArrayI9decNumbercLi34EE6resizeEii.exit, label %9

9:                                                ; preds = %6
  %10 = load ptr, ptr %0, align 8, !tbaa !24
  tail call void @llvm.memcpy.p0.p0.i64(ptr noundef nonnull align 4 dereferenceable(12) %8, ptr noundef nonnull align 4 dereferenceable(12) %10, i64 12, i1 false)
  %11 = getelementptr inbounds nuw i8, ptr %0, i64 12
  %12 = load i8, ptr %11, align 4, !tbaa !28
  %.not.i.i = icmp eq i8 %12, 0
  br i1 %.not.i.i, label %_ZN6icu_7724MaybeStackHeaderAndArrayI9decNumbercLi34EE13releaseMemoryEv.exit.i, label %13

13:                                               ; preds = %9
  tail call void @uprv_free_77(ptr noundef nonnull %10)
  br label %_ZN6icu_7724MaybeStackHeaderAndArrayI9decNumbercLi34EE13releaseMemoryEv.exit.i

_ZN6icu_7724MaybeStackHeaderAndArrayI9decNumbercLi34EE13releaseMemoryEv.exit.i: ; preds = %13, %9
  store ptr %8, ptr %0, align 8, !tbaa !24
  %14 = getelementptr inbounds nuw i8, ptr %0, i64 8
  store i32 %2, ptr %14, align 8, !tbaa !27
  store i8 1, ptr %11, align 4, !tbaa !28
  br label %_ZN6icu_7724MaybeStackHeaderAndArrayI9decNumbercLi34EE6resizeEii.exit

_ZN6icu_7724MaybeStackHeaderAndArrayI9decNumbercLi34EE6resizeEii.exit: ; preds = %4, %_ZN6icu_7724MaybeStackHeaderAndArrayI9decNumbercLi34EE13releaseMemoryEv.exit.i, %6
  %.sink = phi i32 [ %2, %6 ], [ %2, %_ZN6icu_7724MaybeStackHeaderAndArrayI9decNumbercLi34EE13releaseMemoryEv.exit.i ], [ 34, %4 ]
  %15 = getelementptr inbounds nuw i8, ptr %0, i64 64
  store i32 %.sink, ptr %15, align 8, !tbaa !35
  %16 = load ptr, ptr %0, align 8, !tbaa !24
  %17 = getelementptr inbounds nuw i8, ptr %0, i64 64
  %18 = tail call ptr @uprv_decNumberFromString_77(ptr noundef %16, ptr noundef %1, ptr noundef nonnull %17)
  %19 = getelementptr inbounds nuw i8, ptr %0, i64 84
  %20 = load i32, ptr %19, align 4, !tbaa !36
  %21 = and i32 %20, 1
  %.not = icmp eq i32 %21, 0
  br i1 %.not, label %22, label %.sink.split

22:                                               ; preds = %_ZN6icu_7724MaybeStackHeaderAndArrayI9decNumbercLi34EE6resizeEii.exit
  %.not6 = icmp eq i32 %20, 0
  br i1 %.not6, label %23, label %.sink.split

.sink.split:                                      ; preds = %22, %_ZN6icu_7724MaybeStackHeaderAndArrayI9decNumbercLi34EE6resizeEii.exit
  %.sink8 = phi i32 [ 65808, %_ZN6icu_7724MaybeStackHeaderAndArrayI9decNumbercLi34EE6resizeEii.exit ], [ 16, %22 ]
  store i32 %.sink8, ptr %3, align 4, !tbaa !13
  br label %23

23:                                               ; preds = %.sink.split, %22
  ret void
}